target datalayout = "e-m:e-p270:32:32-p271:32:32-p272:64:64-i64:64-i128:128-f80:128-n8:16:32:64-S128"
target triple = "x86_64-pc-linux-gnu"

%struct.ForEachState = type { ptr, i32 }
%struct.List = type { i32, i32, i32, ptr, [0 x %union.ListCell] }
%union.ListCell = type { ptr }
%struct.A_Indices = type { i32, i8, ptr, ptr }
%struct.SubscriptingRef = type { %struct.Expr, i32, i32, i32, i32, i32, ptr, ptr, ptr, ptr }
%struct.Expr = type { i32 }
%struct.SubscriptRoutines = type { ptr, ptr, i8, i8, i8 }
%struct.Node = type { i32 }

@.str.1 = private unnamed_addr constant [13 x i8] c"parse_node.c\00", align 1
@.str.2 = private unnamed_addr constant [66 x i8] c"cannot subscript type %s because it does not support subscripting\00", align 1
@__func__.transformContainerSubscripts = private unnamed_addr constant [29 x i8] c"transformContainerSubscripts\00", align 1

; Function Attrs: inlinehint nounwind uwtable
define internal ptr @newNode(i64 noundef %0, i32 noundef %1) #5 {
  %3 = alloca i64, align 8
  %4 = alloca i32, align 4
  %5 = alloca ptr, align 8
  store i64 %0, ptr %3, align 8
  store i32 %1, ptr %4, align 4
  call void @llvm.lifetime.start.p0(i64 8, ptr %5) #7
  %6 = load i64, ptr %3, align 8
  %7 = call ptr @palloc0(i64 noundef %6)
  store ptr %7, ptr %5, align 8
  %8 = load i32, ptr %4, align 4
  %9 = load ptr, ptr %5, align 8
  %10 = getelementptr inbounds nuw %struct.Node, ptr %9, i32 0, i32 0
  store i32 %8, ptr %10, align 4
  %11 = load ptr, ptr %5, align 8
  call void @llvm.lifetime.end.p0(i64 8, ptr %5) #7
  ret ptr %11
}

; Function Attrs: nounwind uwtable
define dso_local void @transformContainerType(ptr noundef %0, ptr noundef %1) #0 {
  %3 = alloca ptr, align 8
  %4 = alloca ptr, align 8
  store ptr %0, ptr %3, align 8
  store ptr %1, ptr %4, align 8
  %5 = load ptr, ptr %3, align 8
  %6 = load i32, ptr %5, align 4
  %7 = load ptr, ptr %4, align 8
  %8 = call i32 @getBaseTypeAndTypmod(i32 noundef %6, ptr noundef %7)
  %9 = load ptr, ptr %3, align 8
  store i32 %8, ptr %9, align 4
  %10 = load ptr, ptr %3, align 8
  %11 = load i32, ptr %10, align 4
  %12 = icmp eq i32 %11, 22
  br i1 %12, label %13, label %15

13:                                               ; preds = %2
  %14 = load ptr, ptr %3, align 8
  store i32 1005, ptr %14, align 4
  br label %22

15:                                               ; preds = %2
  %16 = load ptr, ptr %3, align 8
  %17 = load i32, ptr %16, align 4
  %18 = icmp eq i32 %17, 30
  br i1 %18, label %19, label %21

19:                                               ; preds = %15
  %20 = load ptr, ptr %3, align 8
  store i32 1028, ptr %20, align 4
  br label %21

21:                                               ; preds = %19, %15
  br label %22

22:                                               ; preds = %21, %13
  ret void
}

; Function Attrs: nounwind uwtable
define dso_local ptr @transformContainerSubscripts(ptr noundef %0, ptr noundef %1, i32 noundef %2, i32 noundef %3, ptr noundef %4, i1 noundef zeroext %5) #0 {
  %7 = alloca ptr, align 8
  %8 = alloca ptr, align 8
  %9 = alloca i32, align 4
  %10 = alloca i32, align 4
  %11 = alloca ptr, align 8
  %12 = alloca i8, align 1
  %13 = alloca ptr, align 8
  %14 = alloca ptr, align 8
  %15 = alloca i32, align 4
  %16 = alloca i8, align 1
  %17 = alloca ptr, align 8
  %18 = alloca %struct.ForEachState, align 8
  %19 = alloca i32, align 4
  %20 = alloca ptr, align 8
  store ptr %0, ptr %7, align 8
  store ptr %1, ptr %8, align 8
  store i32 %2, ptr %9, align 4
  store i32 %3, ptr %10, align 4
  store ptr %4, ptr %11, align 8
  %21 = zext i1 %5 to i8
  store i8 %21, ptr %12, align 1
  call void @llvm.lifetime.start.p0(i64 8, ptr %13) #7
  call void @llvm.lifetime.start.p0(i64 8, ptr %14) #7
  call void @llvm.lifetime.start.p0(i64 4, ptr %15) #7
  call void @llvm.lifetime.start.p0(i64 1, ptr %16) #7
  store i8 0, ptr %16, align 1
  call void @llvm.lifetime.start.p0(i64 8, ptr %17) #7
  %22 = load i8, ptr %12, align 1, !range !4, !noundef !5
  %23 = trunc i8 %22 to i1
  br i1 %23, label %25, label %24

24:                                               ; preds = %6
  call void @transformContainerType(ptr noundef %9, ptr noundef %10)
  br label %25

25:                                               ; preds = %24, %6
  %26 = load i32, ptr %9, align 4
  %27 = call ptr @getSubscriptingRoutines(i32 noundef %26, ptr noundef %15)
  store ptr %27, ptr %14, align 8
  %28 = load ptr, ptr %14, align 8
  %29 = icmp ne ptr %28, null
  br i1 %29, label %48, label %30

30:                                               ; preds = %25
  br label %31

31:                                               ; preds = %30
  br i1 true, label %32, label %34

32:                                               ; preds = %31
  %33 = call zeroext i1 @errstart_cold(i32 noundef 21, ptr noundef null) #8
  br i1 %33, label %36, label %45

34:                                               ; preds = %31
  %35 = call zeroext i1 @errstart(i32 noundef 21, ptr noundef null)
  br i1 %35, label %36, label %45

36:                                               ; preds = %34, %32
  %37 = call i32 @errcode(i32 noundef 67141764)
  %38 = load i32, ptr %9, align 4
  %39 = call ptr @format_type_be(i32 noundef %38)
  %40 = call i32 (ptr, ...) @errmsg(ptr noundef @.str.2, ptr noundef %39)
  %41 = load ptr, ptr %7, align 8
  %42 = load ptr, ptr %8, align 8
  %43 = call i32 @exprLocation(ptr noundef %42)
  %44 = call i32 @parser_errposition(ptr noundef %41, i32 noundef %43)
  call void @errfinish(ptr noundef @.str.1, i32 noundef 274, ptr noundef @__func__.transformContainerSubscripts)
  br label %45

45:                                               ; preds = %36, %34, %32
  unreachable

46:                                               ; No predecessors!
  br label %47

47:                                               ; preds = %46
  br label %48

48:                                               ; preds = %47, %25
  call void @llvm.lifetime.start.p0(i64 16, ptr %18) #7
  %49 = getelementptr inbounds nuw %struct.ForEachState, ptr %18, i32 0, i32 0
  %50 = load ptr, ptr %11, align 8
  store ptr %50, ptr %49, align 8
  %51 = getelementptr inbounds nuw %struct.ForEachState, ptr %18, i32 0, i32 1
  store i32 0, ptr %51, align 8
  %52 = getelementptr i8, ptr %18, i64 12
  call void @llvm.memset.p0.i64(ptr align 4 %52, i8 0, i64 4, i1 false)
  br label %53

53:                                               ; preds = %91, %48
  %54 = getelementptr inbounds nuw %struct.ForEachState, ptr %18, i32 0, i32 0
  %55 = load ptr, ptr %54, align 8
  %56 = icmp ne ptr %55, null
  br i1 %56, label %57, label %74

57:                                               ; preds = %53
  %58 = getelementptr inbounds nuw %struct.ForEachState, ptr %18, i32 0, i32 1
  %59 = load i32, ptr %58, align 8
  %60 = getelementptr inbounds nuw %struct.ForEachState, ptr %18, i32 0, i32 0
  %61 = load ptr, ptr %60, align 8
  %62 = getelementptr inbounds nuw %struct.List, ptr %61, i32 0, i32 1
  %63 = load i32, ptr %62, align 4
  %64 = icmp slt i32 %59, %63
  br i1 %64, label %65, label %74

65:                                               ; preds = %57
  %66 = getelementptr inbounds nuw %struct.ForEachState, ptr %18, i32 0, i32 0
  %67 = load ptr, ptr %66, align 8
  %68 = getelementptr inbounds nuw %struct.List, ptr %67, i32 0, i32 3
  %69 = load ptr, ptr %68, align 8
  %70 = getelementptr inbounds nuw %struct.ForEachState, ptr %18, i32 0, i32 1
  %71 = load i32, ptr %70, align 8
  %72 = sext i32 %71 to i64
  %73 = getelementptr inbounds %union.ListCell, ptr %69, i64 %72
  store ptr %73, ptr %17, align 8
  br label %75

74:                                               ; preds = %57, %53
  store ptr null, ptr %17, align 8
  br label %75

75:                                               ; preds = %74, %65
  %76 = phi i32 [ 1, %65 ], [ 0, %74 ]
  %77 = icmp ne i32 %76, 0
  br i1 %77, label %79, label %78

78:                                               ; preds = %75
  store i32 4, ptr %19, align 4
  br label %95

79:                                               ; preds = %75
  call void @llvm.lifetime.start.p0(i64 8, ptr %20) #7
  %80 = load ptr, ptr %17, align 8
  %81 = load ptr, ptr %80, align 8
  store ptr %81, ptr %20, align 8
  %82 = load ptr, ptr %20, align 8
  %83 = getelementptr inbounds nuw %struct.A_Indices, ptr %82, i32 0, i32 1
  %84 = load i8, ptr %83, align 4, !range !4, !noundef !5
  %85 = trunc i8 %84 to i1
  br i1 %85, label %86, label %87

86:                                               ; preds = %79
  store i8 1, ptr %16, align 1
  store i32 4, ptr %19, align 4
  br label %88

87:                                               ; preds = %79
  store i32 0, ptr %19, align 4
  br label %88

88:                                               ; preds = %87, %86
  call void @llvm.lifetime.end.p0(i64 8, ptr %20) #7
  %89 = load i32, ptr %19, align 4
  switch i32 %89, label %95 [
    i32 0, label %90
  ]

90:                                               ; preds = %88
  br label %91

91:                                               ; preds = %90
  %92 = getelementptr inbounds nuw %struct.ForEachState, ptr %18, i32 0, i32 1
  %93 = load i32, ptr %92, align 8
  %94 = add i32 %93, 1
  store i32 %94, ptr %92, align 8
  br label %53, !llvm.loop !6

95:                                               ; preds = %88, %78
  call void @llvm.lifetime.end.p0(i64 16, ptr %18) #7
  br label %96

96:                                               ; preds = %95
  %97 = call ptr @newNode(i64 noundef 56, i32 noundef 14)
  store ptr %97, ptr %13, align 8
  %98 = load i32, ptr %9, align 4
  %99 = load ptr, ptr %13, align 8
  %100 = getelementptr inbounds nuw %struct.SubscriptingRef, ptr %99, i32 0, i32 1
  store i32 %98, ptr %100, align 4
  %101 = load i32, ptr %15, align 4
  %102 = load ptr, ptr %13, align 8
  %103 = getelementptr inbounds nuw %struct.SubscriptingRef, ptr %102, i32 0, i32 2
  store i32 %101, ptr %103, align 8
  %104 = load i32, ptr %10, align 4
  %105 = load ptr, ptr %13, align 8
  %106 = getelementptr inbounds nuw %struct.SubscriptingRef, ptr %105, i32 0, i32 4
  store i32 %104, ptr %106, align 8
  %107 = load ptr, ptr %8, align 8
  %108 = load ptr, ptr %13, align 8
  %109 = getelementptr inbounds nuw %struct.SubscriptingRef, ptr %108, i32 0, i32 8
  store ptr %107, ptr %109, align 8
  %110 = load ptr, ptr %13, align 8
  %111 = getelementptr inbounds nuw %struct.SubscriptingRef, ptr %110, i32 0, i32 9
  store ptr null, ptr %111, align 8
  %112 = load ptr, ptr %14, align 8
  %113 = getelementptr inbounds nuw %struct.SubscriptRoutines, ptr %112, i32 0, i32 0
  %114 = load ptr, ptr %113, align 8
  %115 = load ptr, ptr %13, align 8
  %116 = load ptr, ptr %11, align 8
  %117 = load ptr, ptr %7, align 8
  %118 = load i8, ptr %16, align 1, !range !4, !noundef !5
  %119 = trunc i8 %118 to i1
  %120 = load i8, ptr %12, align 1, !range !4, !noundef !5
  %121 = trunc i8 %120 to i1
  call void %114(ptr noundef %115, ptr noundef %116, ptr noundef %117, i1 noundef zeroext %119, i1 noundef zeroext %121)
  %122 = load ptr, ptr %13, align 8
  %123 = getelementptr inbounds nuw %struct.SubscriptingRef, ptr %122, i32 0, i32 3
  %124 = load i32, ptr %123, align 4
  %125 = icmp ne i32 %124, 0
  br i1 %125, label %140, label %126

126:                                              ; preds = %96
  br label %127

127:                                              ; preds = %126
  br i1 true, label %128, label %130

128:                                              ; preds = %127
  %129 = call zeroext i1 @errstart_cold(i32 noundef 21, ptr noundef null) #8
  br i1 %129, label %132, label %137

130:                                              ; preds = %127
  %131 = call zeroext i1 @errstart(i32 noundef 21, ptr noundef null)
  br i1 %131, label %132, label %137

132:                                              ; preds = %130, %128
  %133 = call i32 @errcode(i32 noundef 67141764)
  %134 = load i32, ptr %9, align 4
  %135 = call ptr @format_type_be(i32 noundef %134)
  %136 = call i32 (ptr, ...) @errmsg(ptr noundef @.str.2, ptr noundef %135)
  call void @errfinish(ptr noundef @.str.1, i32 noundef 323, ptr noundef @__func__.transformContainerSubscripts)
  br label %137

137:                                              ; preds = %132, %130, %128
  unreachable

138:                                              ; No predecessors!
  br label %139

139:                                              ; preds = %138
  br label %140

140:                                              ; preds = %139, %96
  %141 = load ptr, ptr %13, align 8
  store i32 1, ptr %19, align 4
  call void @llvm.lifetime.end.p0(i64 8, ptr %17) #7
  call void @llvm.lifetime.end.p0(i64 1, ptr %16) #7
  call void @llvm.lifetime.end.p0(i64 4, ptr %15) #7
  call void @llvm.lifetime.end.p0(i64 8, ptr %14) #7
  call void @llvm.lifetime.end.p0(i64 8, ptr %13) #7
  ret ptr %141
}