; Function Attrs: nounwind uwtable
define dso_local noundef ptr @transformContainerSubscripts(ptr noundef %0, ptr noundef %1, i32 noundef %2, i32 noundef %3, ptr noundef %4, i1 noundef zeroext %5) local_unnamed_addr #0 {
  %7 = alloca i32, align 4
  %8 = alloca i32, align 4
  store i32 %3, ptr %7, align 4
  call void @llvm.lifetime.start.p0(i64 4, ptr nonnull %8) #8
  br i1 %5, label %transformContainerType.exit, label %9

9:                                                ; preds = %6
  %10 = call i32 @getBaseTypeAndTypmod(i32 noundef %2, ptr noundef nonnull %7) #8
  switch i32 %10, label %transformContainerType.exit [
    i32 22, label %.sink.split.i
    i32 30, label %11
  ]

11:                                               ; preds = %9
  br label %transformContainerType.exit

.sink.split.i:                                    ; preds = %9
  br label %transformContainerType.exit

transformContainerType.exit:                      ; preds = %.sink.split.i, %9, %11, %6
  %.036 = phi i32 [ %2, %6 ], [ %10, %9 ], [ 1028, %11 ], [ 1005, %.sink.split.i ]
  %12 = call ptr @getSubscriptingRoutines(i32 noundef %.036, ptr noundef nonnull %8) #8
  %.not = icmp eq ptr %12, null
  br i1 %.not, label %18, label %.preheader

.preheader:                                       ; preds = %transformContainerType.exit
  %.not29 = icmp eq ptr %4, null
  br i1 %.not29, label %.thread, label %.lr.ph

.lr.ph:                                           ; preds = %.preheader
  %13 = getelementptr inbounds nuw i8, ptr %4, i64 4
  %14 = load i32, ptr %13, align 4
  %15 = icmp sgt i32 %14, 0
  br i1 %15, label %.lr.ph48, label %.thread

.lr.ph48:                                         ; preds = %.lr.ph
  %16 = getelementptr inbounds nuw i8, ptr %4, i64 16
  %17 = load ptr, ptr %16, align 8
  %wide.trip.count = zext nneg i32 %14 to i64
  br label %25

18:                                               ; preds = %transformContainerType.exit
  %19 = call zeroext i1 @errstart_cold(i32 noundef 21, ptr noundef null) #9
  call void @llvm.assume(i1 %19)
  %20 = call i32 @errcode(i32 noundef 67141764) #8
  %21 = call ptr @format_type_be(i32 noundef %.036) #8
  %22 = call i32 (ptr, ...) @errmsg(ptr noundef nonnull @.str.2, ptr noundef %21) #8
  %23 = call i32 @exprLocation(ptr noundef %1) #8
  %24 = call i32 @parser_errposition(ptr noundef %0, i32 noundef %23)
  call void @errfinish(ptr noundef nonnull @.str.1, i32 noundef 274, ptr noundef nonnull @__func__.transformContainerSubscripts) #8
  unreachable

25:                                               ; preds = %25, %.lr.ph48
  %indvars.iv = phi i64 [ 0, %.lr.ph48 ], [ %indvars.iv.next, %25 ]
  %26 = getelementptr inbounds nuw %union.ListCell, ptr %17, i64 %indvars.iv
  %27 = load ptr, ptr %26, align 8
  %28 = getelementptr inbounds nuw i8, ptr %27, i64 4
  %29 = load i8, ptr %28, align 4, !range !4, !noundef !5
  %30 = trunc nuw i8 %29 to i1
  %indvars.iv.next = add nuw nsw i64 %indvars.iv, 1
  %exitcond.not = icmp eq i64 %indvars.iv.next, %wide.trip.count
  %or.cond = select i1 %30, i1 true, i1 %exitcond.not
  br i1 %or.cond, label %.thread, label %25

.thread:                                          ; preds = %25, %.lr.ph, %.preheader
  %.1 = phi i1 [ false, %.preheader ], [ false, %.lr.ph ], [ %30, %25 ]
  %31 = call noundef ptr @palloc0(i64 noundef 56) #8
  store i32 14, ptr %31, align 4
  %32 = getelementptr inbounds nuw i8, ptr %31, i64 4
  store i32 %.036, ptr %32, align 4
  %33 = load i32, ptr %8, align 4
  %34 = getelementptr inbounds nuw i8, ptr %31, i64 8
  store i32 %33, ptr %34, align 8
  %35 = load i32, ptr %7, align 4
  %36 = getelementptr inbounds nuw i8, ptr %31, i64 16
  store i32 %35, ptr %36, align 8
  %37 = getelementptr inbounds nuw i8, ptr %31, i64 40
  store ptr %1, ptr %37, align 8
  %38 = getelementptr inbounds nuw i8, ptr %31, i64 48
  store ptr null, ptr %38, align 8
  %39 = load ptr, ptr %12, align 8
  call void %39(ptr noundef nonnull %31, ptr noundef %4, ptr noundef %0, i1 noundef zeroext %.1, i1 noundef zeroext %5) #8
  %40 = getelementptr inbounds nuw i8, ptr %31, i64 12
  %41 = load i32, ptr %40, align 4
  %.not31 = icmp eq i32 %41, 0
  br i1 %.not31, label %42, label %47

42:                                               ; preds = %.thread
  %43 = call zeroext i1 @errstart_cold(i32 noundef 21, ptr noundef null) #9
  call void @llvm.assume(i1 %43)
  %44 = call i32 @errcode(i32 noundef 67141764) #8
  %45 = call ptr @format_type_be(i32 noundef %.036) #8
  %46 = call i32 (ptr, ...) @errmsg(ptr noundef nonnull @.str.2, ptr noundef %45) #8
  call void @errfinish(ptr noundef nonnull @.str.1, i32 noundef 323, ptr noundef nonnull @__func__.transformContainerSubscripts) #8
  unreachable

47:                                               ; preds = %.thread
  call void @llvm.lifetime.end.p0(i64 4, ptr nonnull %8) #8
  ret ptr %31
}